target datalayout = "e-m:e-p270:32:32-p271:32:32-p272:64:64-i64:64-i128:128-f80:128-n8:16:32:64-S128"
target triple = "x86_64-pc-linux-gnu"

%struct.ic_completion_env_s = type { ptr, ptr, i64, ptr, ptr, ptr }

; Function Attrs: nounwind uwtable
define dso_local zeroext i1 @ic_add_completion_prim(ptr noundef %0, ptr noundef %1, ptr noundef %2, ptr noundef %3, i64 noundef %4, i64 noundef %5) #0 {
  %7 = alloca ptr, align 8
  %8 = alloca ptr, align 8
  %9 = alloca ptr, align 8
  %10 = alloca ptr, align 8
  %11 = alloca i64, align 8
  %12 = alloca i64, align 8
  store ptr %0, ptr %7, align 8, !tbaa !49
  store ptr %1, ptr %8, align 8, !tbaa !11
  store ptr %2, ptr %9, align 8, !tbaa !11
  store ptr %3, ptr %10, align 8, !tbaa !11
  store i64 %4, ptr %11, align 8, !tbaa !9
  store i64 %5, ptr %12, align 8, !tbaa !9
  %13 = load ptr, ptr %7, align 8, !tbaa !49
  %14 = getelementptr inbounds nuw %struct.ic_completion_env_s, ptr %13, i32 0, i32 5
  %15 = load ptr, ptr %14, align 8, !tbaa !55
  %16 = load ptr, ptr %7, align 8, !tbaa !49
  %17 = getelementptr inbounds nuw %struct.ic_completion_env_s, ptr %16, i32 0, i32 0
  %18 = load ptr, ptr %17, align 8, !tbaa !59
  %19 = load ptr, ptr %7, align 8, !tbaa !49
  %20 = getelementptr inbounds nuw %struct.ic_completion_env_s, ptr %19, i32 0, i32 4
  %21 = load ptr, ptr %20, align 8, !tbaa !61
  %22 = load ptr, ptr %8, align 8, !tbaa !11
  %23 = load ptr, ptr %9, align 8, !tbaa !11
  %24 = load ptr, ptr %10, align 8, !tbaa !11
  %25 = load i64, ptr %11, align 8, !tbaa !9
  %26 = load i64, ptr %12, align 8, !tbaa !9
  %27 = call zeroext i1 %15(ptr noundef %18, ptr noundef %21, ptr noundef %22, ptr noundef %23, ptr noundef %24, i64 noundef %25, i64 noundef %26)
  ret i1 %27
}

; Function Attrs: nounwind uwtable
define dso_local zeroext i1 @ic_add_completion_ex(ptr noundef %0, ptr noundef %1, ptr noundef %2, ptr noundef %3) #0 {
  %5 = alloca ptr, align 8
  %6 = alloca ptr, align 8
  %7 = alloca ptr, align 8
  %8 = alloca ptr, align 8
  store ptr %0, ptr %5, align 8, !tbaa !49
  store ptr %1, ptr %6, align 8, !tbaa !11
  store ptr %2, ptr %7, align 8, !tbaa !11
  store ptr %3, ptr %8, align 8, !tbaa !11
  %9 = load ptr, ptr %5, align 8, !tbaa !49
  %10 = load ptr, ptr %6, align 8, !tbaa !11
  %11 = load ptr, ptr %7, align 8, !tbaa !11
  %12 = load ptr, ptr %8, align 8, !tbaa !11
  %13 = call zeroext i1 @ic_add_completion_prim(ptr noundef %9, ptr noundef %10, ptr noundef %11, ptr noundef %12, i64 noundef 0, i64 noundef 0)
  ret i1 %13
}