; Function Attrs: nounwind uwtable
define dso_local zeroext i1 @ic_add_completion_ex(ptr noundef readonly captures(none) %0, ptr noundef %1, ptr noundef %2, ptr noundef %3) local_unnamed_addr #0 {
  %5 = getelementptr inbounds nuw i8, ptr %0, i64 40
  %6 = load ptr, ptr %5, align 8, !tbaa !71
  %7 = load ptr, ptr %0, align 8, !tbaa !75
  %8 = getelementptr inbounds nuw i8, ptr %0, i64 32
  %9 = load ptr, ptr %8, align 8, !tbaa !77
  %10 = tail call zeroext i1 %6(ptr noundef %7, ptr noundef %9, ptr noundef %1, ptr noundef %2, ptr noundef %3, i64 noundef 0, i64 noundef 0) #32
  ret i1 %10
}